target datalayout = "e-m:e-p270:32:32-p271:32:32-p272:64:64-i64:64-i128:128-f80:128-n8:16:32:64-S128"
target triple = "x86_64-pc-linux-gnu"

%struct.pg_atomic_uint32 = type { i32 }
%struct.LWLock = type { i16, %struct.pg_atomic_uint32, %struct.proclist_head }
%struct.proclist_head = type { i32, i32 }
%struct.xl_standby_lock = type { i32, i32, i32 }
%struct.RunningTransactionsData = type { i32, i32, i32, i32, i32, i32, i32, ptr }
%struct.xl_standby_locks = type { i32, [0 x %struct.xl_standby_lock] }
%struct.xl_running_xacts = type { i32, i32, i8, i32, i32, i32, [0 x i32] }
%union.LWLockPadded = type { %struct.LWLock, [112 x i8] }

@.str.7 = private unnamed_addr constant [10 x i8] c"standby.c\00", align 1
@wal_level = external global i32, align 4
@MainLWLockArray = external global ptr, align 8
@.str.17 = private unnamed_addr constant [104 x i8] c"snapshot of %d running transactions overflowed (lsn %X/%X oldest xid %u latest complete %u next xid %u)\00", align 1
@__func__.LogCurrentRunningXacts = private unnamed_addr constant [23 x i8] c"LogCurrentRunningXacts\00", align 1
@.str.18 = private unnamed_addr constant [99 x i8] c"snapshot of %d+%d running transaction ids (lsn %X/%X oldest xid %u latest complete %u next xid %u)\00", align 1

; Function Attrs: nounwind uwtable
define internal i64 @LogCurrentRunningXacts(ptr noundef %0) #0 {
  %2 = alloca ptr, align 8
  %3 = alloca %struct.xl_running_xacts, align 4
  %4 = alloca i64, align 8
  %5 = alloca i32, align 4
  %6 = alloca i32, align 4
  store ptr %0, ptr %2, align 8
  call void @llvm.lifetime.start.p0(i64 24, ptr %3) #8
  call void @llvm.lifetime.start.p0(i64 8, ptr %4) #8
  %7 = load ptr, ptr %2, align 8
  %8 = getelementptr inbounds nuw %struct.RunningTransactionsData, ptr %7, i32 0, i32 0
  %9 = load i32, ptr %8, align 8
  %10 = getelementptr inbounds nuw %struct.xl_running_xacts, ptr %3, i32 0, i32 0
  store i32 %9, ptr %10, align 4
  %11 = load ptr, ptr %2, align 8
  %12 = getelementptr inbounds nuw %struct.RunningTransactionsData, ptr %11, i32 0, i32 1
  %13 = load i32, ptr %12, align 4
  %14 = getelementptr inbounds nuw %struct.xl_running_xacts, ptr %3, i32 0, i32 1
  store i32 %13, ptr %14, align 4
  %15 = load ptr, ptr %2, align 8
  %16 = getelementptr inbounds nuw %struct.RunningTransactionsData, ptr %15, i32 0, i32 2
  %17 = load i32, ptr %16, align 8
  %18 = icmp ne i32 %17, 0
  %19 = getelementptr inbounds nuw %struct.xl_running_xacts, ptr %3, i32 0, i32 2
  %20 = zext i1 %18 to i8
  store i8 %20, ptr %19, align 4
  %21 = load ptr, ptr %2, align 8
  %22 = getelementptr inbounds nuw %struct.RunningTransactionsData, ptr %21, i32 0, i32 3
  %23 = load i32, ptr %22, align 4
  %24 = getelementptr inbounds nuw %struct.xl_running_xacts, ptr %3, i32 0, i32 3
  store i32 %23, ptr %24, align 4
  %25 = load ptr, ptr %2, align 8
  %26 = getelementptr inbounds nuw %struct.RunningTransactionsData, ptr %25, i32 0, i32 4
  %27 = load i32, ptr %26, align 8
  %28 = getelementptr inbounds nuw %struct.xl_running_xacts, ptr %3, i32 0, i32 4
  store i32 %27, ptr %28, align 4
  %29 = load ptr, ptr %2, align 8
  %30 = getelementptr inbounds nuw %struct.RunningTransactionsData, ptr %29, i32 0, i32 6
  %31 = load i32, ptr %30, align 8
  %32 = getelementptr inbounds nuw %struct.xl_running_xacts, ptr %3, i32 0, i32 5
  store i32 %31, ptr %32, align 4
  call void @XLogBeginInsert()
  call void @XLogSetRecordFlags(i8 noundef zeroext 2)
  call void @XLogRegisterData(ptr noundef %3, i32 noundef 24)
  %33 = getelementptr inbounds nuw %struct.xl_running_xacts, ptr %3, i32 0, i32 0
  %34 = load i32, ptr %33, align 4
  %35 = icmp sgt i32 %34, 0
  br i1 %35, label %36, label %48

36:                                               ; preds = %1
  %37 = load ptr, ptr %2, align 8
  %38 = getelementptr inbounds nuw %struct.RunningTransactionsData, ptr %37, i32 0, i32 7
  %39 = load ptr, ptr %38, align 8
  %40 = getelementptr inbounds nuw %struct.xl_running_xacts, ptr %3, i32 0, i32 0
  %41 = load i32, ptr %40, align 4
  %42 = getelementptr inbounds nuw %struct.xl_running_xacts, ptr %3, i32 0, i32 1
  %43 = load i32, ptr %42, align 4
  %44 = add i32 %41, %43
  %45 = sext i32 %44 to i64
  %46 = mul i64 %45, 4
  %47 = trunc i64 %46 to i32
  call void @XLogRegisterData(ptr noundef %39, i32 noundef %47)
  br label %48

48:                                               ; preds = %36, %1
  %49 = call i64 @XLogInsert(i8 noundef zeroext 8, i8 noundef zeroext 16)
  store i64 %49, ptr %4, align 8
  %50 = getelementptr inbounds nuw %struct.xl_running_xacts, ptr %3, i32 0, i32 2
  %51 = load i8, ptr %50, align 4, !range !7, !noundef !8
  %52 = trunc i8 %51 to i1
  br i1 %52, label %53, label %84

53:                                               ; preds = %48
  br label %54

54:                                               ; preds = %53
  br i1 false, label %55, label %57

55:                                               ; preds = %54
  %56 = call zeroext i1 @errstart_cold(i32 noundef 13, ptr noundef null) #9
  br i1 %56, label %59, label %81

57:                                               ; preds = %54
  %58 = call zeroext i1 @errstart(i32 noundef 13, ptr noundef null)
  br i1 %58, label %59, label %81

59:                                               ; preds = %57, %55
  %60 = load ptr, ptr %2, align 8
  %61 = getelementptr inbounds nuw %struct.RunningTransactionsData, ptr %60, i32 0, i32 0
  %62 = load i32, ptr %61, align 8
  br label %63

63:                                               ; preds = %59
  br label %64

64:                                               ; preds = %63
  br label %65

65:                                               ; preds = %64
  store i32 1, ptr %5, align 4
  %66 = load i64, ptr %4, align 8
  %67 = lshr i64 %66, 32
  %68 = trunc i64 %67 to i32
  %69 = load i64, ptr %4, align 8
  %70 = trunc i64 %69 to i32
  %71 = load ptr, ptr %2, align 8
  %72 = getelementptr inbounds nuw %struct.RunningTransactionsData, ptr %71, i32 0, i32 4
  %73 = load i32, ptr %72, align 8
  %74 = load ptr, ptr %2, align 8
  %75 = getelementptr inbounds nuw %struct.RunningTransactionsData, ptr %74, i32 0, i32 6
  %76 = load i32, ptr %75, align 8
  %77 = load ptr, ptr %2, align 8
  %78 = getelementptr inbounds nuw %struct.RunningTransactionsData, ptr %77, i32 0, i32 3
  %79 = load i32, ptr %78, align 4
  %80 = call i32 (ptr, ...) @errmsg_internal(ptr noundef @.str.17, i32 noundef %62, i32 noundef %68, i32 noundef %70, i32 noundef %73, i32 noundef %76, i32 noundef %79)
  call void @errfinish(ptr noundef @.str.7, i32 noundef 1372, ptr noundef @__func__.LogCurrentRunningXacts)
  br label %81

81:                                               ; preds = %65, %57, %55
  br label %82

82:                                               ; preds = %81
  br label %83

83:                                               ; preds = %82
  br label %118

84:                                               ; preds = %48
  br label %85

85:                                               ; preds = %84
  br i1 false, label %86, label %88

86:                                               ; preds = %85
  %87 = call zeroext i1 @errstart_cold(i32 noundef 13, ptr noundef null) #9
  br i1 %87, label %90, label %115

88:                                               ; preds = %85
  %89 = call zeroext i1 @errstart(i32 noundef 13, ptr noundef null)
  br i1 %89, label %90, label %115

90:                                               ; preds = %88, %86
  %91 = load ptr, ptr %2, align 8
  %92 = getelementptr inbounds nuw %struct.RunningTransactionsData, ptr %91, i32 0, i32 0
  %93 = load i32, ptr %92, align 8
  %94 = load ptr, ptr %2, align 8
  %95 = getelementptr inbounds nuw %struct.RunningTransactionsData, ptr %94, i32 0, i32 1
  %96 = load i32, ptr %95, align 4
  br label %97

97:                                               ; preds = %90
  br label %98

98:                                               ; preds = %97
  br label %99

99:                                               ; preds = %98
  store i32 1, ptr %6, align 4
  %100 = load i64, ptr %4, align 8
  %101 = lshr i64 %100, 32
  %102 = trunc i64 %101 to i32
  %103 = load i64, ptr %4, align 8
  %104 = trunc i64 %103 to i32
  %105 = load ptr, ptr %2, align 8
  %106 = getelementptr inbounds nuw %struct.RunningTransactionsData, ptr %105, i32 0, i32 4
  %107 = load i32, ptr %106, align 8
  %108 = load ptr, ptr %2, align 8
  %109 = getelementptr inbounds nuw %struct.RunningTransactionsData, ptr %108, i32 0, i32 6
  %110 = load i32, ptr %109, align 8
  %111 = load ptr, ptr %2, align 8
  %112 = getelementptr inbounds nuw %struct.RunningTransactionsData, ptr %111, i32 0, i32 3
  %113 = load i32, ptr %112, align 4
  %114 = call i32 (ptr, ...) @errmsg_internal(ptr noundef @.str.18, i32 noundef %93, i32 noundef %96, i32 noundef %102, i32 noundef %104, i32 noundef %107, i32 noundef %110, i32 noundef %113)
  call void @errfinish(ptr noundef @.str.7, i32 noundef 1380, ptr noundef @__func__.LogCurrentRunningXacts)
  br label %115

115:                                              ; preds = %99, %88, %86
  br label %116

116:                                              ; preds = %115
  br label %117

117:                                              ; preds = %116
  br label %118

118:                                              ; preds = %117, %83
  %119 = load i64, ptr %4, align 8
  call void @XLogSetAsyncXactLSN(i64 noundef %119)
  %120 = load i64, ptr %4, align 8
  call void @llvm.lifetime.end.p0(i64 8, ptr %4) #8
  call void @llvm.lifetime.end.p0(i64 24, ptr %3) #8
  ret i64 %120
}

; Function Attrs: nounwind uwtable
define internal void @LogAccessExclusiveLocks(i32 noundef %0, ptr noundef %1) #0 {
  %3 = alloca i32, align 4
  %4 = alloca ptr, align 8
  %5 = alloca %struct.xl_standby_locks, align 4
  store i32 %0, ptr %3, align 4
  store ptr %1, ptr %4, align 8
  call void @llvm.lifetime.start.p0(i64 4, ptr %5) #8
  %6 = load i32, ptr %3, align 4
  %7 = getelementptr inbounds nuw %struct.xl_standby_locks, ptr %5, i32 0, i32 0
  store i32 %6, ptr %7, align 4
  call void @XLogBeginInsert()
  call void @XLogRegisterData(ptr noundef %5, i32 noundef 4)
  %8 = load ptr, ptr %4, align 8
  %9 = load i32, ptr %3, align 4
  %10 = sext i32 %9 to i64
  %11 = mul i64 %10, 12
  %12 = trunc i64 %11 to i32
  call void @XLogRegisterData(ptr noundef %8, i32 noundef %12)
  call void @XLogSetRecordFlags(i8 noundef zeroext 2)
  %13 = call i64 @XLogInsert(i8 noundef zeroext 8, i8 noundef zeroext 0)
  call void @llvm.lifetime.end.p0(i64 4, ptr %5) #8
  ret void
}

; Function Attrs: nounwind uwtable
define dso_local i64 @LogStandbySnapshot() #0 {
  %1 = alloca i64, align 8
  %2 = alloca ptr, align 8
  %3 = alloca ptr, align 8
  %4 = alloca i32, align 4
  call void @llvm.lifetime.start.p0(i64 8, ptr %1) #8
  call void @llvm.lifetime.start.p0(i64 8, ptr %2) #8
  call void @llvm.lifetime.start.p0(i64 8, ptr %3) #8
  call void @llvm.lifetime.start.p0(i64 4, ptr %4) #8
  %5 = call ptr @GetRunningTransactionLocks(ptr noundef %4)
  store ptr %5, ptr %3, align 8
  %6 = load i32, ptr %4, align 4
  %7 = icmp sgt i32 %6, 0
  br i1 %7, label %8, label %11

8:                                                ; preds = %0
  %9 = load i32, ptr %4, align 4
  %10 = load ptr, ptr %3, align 8
  call void @LogAccessExclusiveLocks(i32 noundef %9, ptr noundef %10)
  br label %11

11:                                               ; preds = %8, %0
  %12 = load ptr, ptr %3, align 8
  call void @pfree(ptr noundef %12)
  %13 = call ptr @GetRunningTransactionData()
  store ptr %13, ptr %2, align 8
  %14 = load i32, ptr @wal_level, align 4
  %15 = icmp slt i32 %14, 2
  br i1 %15, label %16, label %19

16:                                               ; preds = %11
  %17 = load ptr, ptr @MainLWLockArray, align 8
  %18 = getelementptr inbounds %union.LWLockPadded, ptr %17, i64 4
  call void @LWLockRelease(ptr noundef %18)
  br label %19

19:                                               ; preds = %16, %11
  %20 = load ptr, ptr %2, align 8
  %21 = call i64 @LogCurrentRunningXacts(ptr noundef %20)
  store i64 %21, ptr %1, align 8
  %22 = load i32, ptr @wal_level, align 4
  %23 = icmp sge i32 %22, 2
  br i1 %23, label %24, label %27

24:                                               ; preds = %19
  %25 = load ptr, ptr @MainLWLockArray, align 8
  %26 = getelementptr inbounds %union.LWLockPadded, ptr %25, i64 4
  call void @LWLockRelease(ptr noundef %26)
  br label %27

27:                                               ; preds = %24, %19
  %28 = load ptr, ptr @MainLWLockArray, align 8
  %29 = getelementptr inbounds %union.LWLockPadded, ptr %28, i64 3
  call void @LWLockRelease(ptr noundef %29)
  %30 = load i64, ptr %1, align 8
  call void @llvm.lifetime.end.p0(i64 4, ptr %4) #8
  call void @llvm.lifetime.end.p0(i64 8, ptr %3) #8
  call void @llvm.lifetime.end.p0(i64 8, ptr %2) #8
  call void @llvm.lifetime.end.p0(i64 8, ptr %1) #8
  ret i64 %30
}