; Function Attrs: nounwind uwtable
define dso_local i64 @LogStandbySnapshot() local_unnamed_addr #0 {
  %1 = alloca %struct.xl_running_xacts, align 4
  %2 = alloca %struct.xl_standby_locks, align 4
  %3 = alloca i32, align 4
  call void @llvm.lifetime.start.p0(i64 4, ptr nonnull %3) #7
  %4 = call ptr @GetRunningTransactionLocks(ptr noundef nonnull %3) #7
  %5 = load i32, ptr %3, align 4
  %6 = icmp sgt i32 %5, 0
  br i1 %6, label %7, label %10

7:                                                ; preds = %0
  call void @llvm.lifetime.start.p0(i64 4, ptr nonnull %2) #7
  store i32 %5, ptr %2, align 4
  call void @XLogBeginInsert() #7
  call void @XLogRegisterData(ptr noundef nonnull %2, i32 noundef 4) #7
  %8 = mul i32 %5, 12
  call void @XLogRegisterData(ptr noundef %4, i32 noundef %8) #7
  call void @XLogSetRecordFlags(i8 noundef zeroext 2) #7
  %9 = call i64 @XLogInsert(i8 noundef zeroext 8, i8 noundef zeroext 0) #7
  call void @llvm.lifetime.end.p0(i64 4, ptr nonnull %2) #7
  br label %10

10:                                               ; preds = %7, %0
  call void @pfree(ptr noundef %4) #7
  %11 = call ptr @GetRunningTransactionData() #7
  %12 = load i32, ptr @wal_level, align 4
  %13 = icmp slt i32 %12, 2
  br i1 %13, label %14, label %17

14:                                               ; preds = %10
  %15 = load ptr, ptr @MainLWLockArray, align 8
  %16 = getelementptr inbounds nuw i8, ptr %15, i64 512
  call void @LWLockRelease(ptr noundef nonnull %16) #7
  br label %17

17:                                               ; preds = %14, %10
  call void @llvm.lifetime.start.p0(i64 24, ptr nonnull %1) #7
  %18 = load i32, ptr %11, align 8
  store i32 %18, ptr %1, align 4
  %19 = getelementptr inbounds nuw i8, ptr %11, i64 4
  %20 = load i32, ptr %19, align 4
  %21 = getelementptr inbounds nuw i8, ptr %1, i64 4
  store i32 %20, ptr %21, align 4
  %22 = getelementptr inbounds nuw i8, ptr %11, i64 8
  %23 = load i32, ptr %22, align 8
  %24 = icmp ne i32 %23, 0
  %25 = getelementptr inbounds nuw i8, ptr %1, i64 8
  %26 = zext i1 %24 to i8
  store i8 %26, ptr %25, align 4
  %27 = getelementptr inbounds nuw i8, ptr %11, i64 12
  %28 = load i32, ptr %27, align 4
  %29 = getelementptr inbounds nuw i8, ptr %1, i64 12
  store i32 %28, ptr %29, align 4
  %30 = getelementptr inbounds nuw i8, ptr %11, i64 16
  %31 = load i32, ptr %30, align 8
  %32 = getelementptr inbounds nuw i8, ptr %1, i64 16
  store i32 %31, ptr %32, align 4
  %33 = getelementptr inbounds nuw i8, ptr %11, i64 24
  %34 = load i32, ptr %33, align 8
  %35 = getelementptr inbounds nuw i8, ptr %1, i64 20
  store i32 %34, ptr %35, align 4
  call void @XLogBeginInsert() #7
  call void @XLogSetRecordFlags(i8 noundef zeroext 2) #7
  call void @XLogRegisterData(ptr noundef nonnull %1, i32 noundef 24) #7
  %36 = load i32, ptr %1, align 4
  %37 = icmp sgt i32 %36, 0
  br i1 %37, label %38, label %44

38:                                               ; preds = %17
  %39 = getelementptr inbounds nuw i8, ptr %11, i64 32
  %40 = load ptr, ptr %39, align 8
  %41 = load i32, ptr %21, align 4
  %42 = add i32 %41, %36
  %43 = shl i32 %42, 2
  call void @XLogRegisterData(ptr noundef %40, i32 noundef %43) #7
  br label %44

44:                                               ; preds = %38, %17
  %45 = call i64 @XLogInsert(i8 noundef zeroext 8, i8 noundef zeroext 16) #7
  %46 = load i8, ptr %25, align 4, !range !7, !noundef !8
  %47 = trunc nuw i8 %46 to i1
  %48 = call zeroext i1 @errstart(i32 noundef 13, ptr noundef null) #7
  br i1 %47, label %49, label %59

49:                                               ; preds = %44
  br i1 %48, label %50, label %LogCurrentRunningXacts.exit

50:                                               ; preds = %49
  %51 = load i32, ptr %11, align 8
  %52 = lshr i64 %45, 32
  %53 = trunc nuw i64 %52 to i32
  %54 = trunc i64 %45 to i32
  %55 = load i32, ptr %30, align 8
  %56 = load i32, ptr %33, align 8
  %57 = load i32, ptr %27, align 4
  %58 = call i32 (ptr, ...) @errmsg_internal(ptr noundef nonnull @.str.17, i32 noundef %51, i32 noundef %53, i32 noundef %54, i32 noundef %55, i32 noundef %56, i32 noundef %57) #7
  br label %.sink.split.i

59:                                               ; preds = %44
  br i1 %48, label %60, label %LogCurrentRunningXacts.exit

60:                                               ; preds = %59
  %61 = load i32, ptr %11, align 8
  %62 = load i32, ptr %19, align 4
  %63 = lshr i64 %45, 32
  %64 = trunc nuw i64 %63 to i32
  %65 = trunc i64 %45 to i32
  %66 = load i32, ptr %30, align 8
  %67 = load i32, ptr %33, align 8
  %68 = load i32, ptr %27, align 4
  %69 = call i32 (ptr, ...) @errmsg_internal(ptr noundef nonnull @.str.18, i32 noundef %61, i32 noundef %62, i32 noundef %64, i32 noundef %65, i32 noundef %66, i32 noundef %67, i32 noundef %68) #7
  br label %.sink.split.i

.sink.split.i:                                    ; preds = %60, %50
  %.sink.i = phi i32 [ 1380, %60 ], [ 1372, %50 ]
  call void @errfinish(ptr noundef nonnull @.str.7, i32 noundef %.sink.i, ptr noundef nonnull @__func__.LogCurrentRunningXacts) #7
  br label %LogCurrentRunningXacts.exit

LogCurrentRunningXacts.exit:                      ; preds = %49, %59, %.sink.split.i
  call void @XLogSetAsyncXactLSN(i64 noundef %45) #7
  call void @llvm.lifetime.end.p0(i64 24, ptr nonnull %1) #7
  %70 = load i32, ptr @wal_level, align 4
  %71 = icmp sgt i32 %70, 1
  br i1 %71, label %72, label %75

72:                                               ; preds = %LogCurrentRunningXacts.exit
  %73 = load ptr, ptr @MainLWLockArray, align 8
  %74 = getelementptr inbounds nuw i8, ptr %73, i64 512
  call void @LWLockRelease(ptr noundef nonnull %74) #7
  br label %75

75:                                               ; preds = %72, %LogCurrentRunningXacts.exit
  %76 = load ptr, ptr @MainLWLockArray, align 8
  %77 = getelementptr inbounds nuw i8, ptr %76, i64 384
  call void @LWLockRelease(ptr noundef nonnull %77) #7
  call void @llvm.lifetime.end.p0(i64 4, ptr nonnull %3) #7
  ret i64 %45
}